target datalayout = "e-m:e-p270:32:32-p271:32:32-p272:64:64-i64:64-i128:128-f80:128-n8:16:32:64-S128"
target triple = "x86_64-pc-linux-gnu"

%"class.google::protobuf::io::ZeroCopyInputStream" = type { ptr }
%"class.google::protobuf::io::LimitingInputStream" = type { %"class.google::protobuf::io::ZeroCopyInputStream", ptr, i64, i64 }

; Function Attrs: mustprogress uwtable
define hidden noundef zeroext i1 @_ZN6google8protobuf2io19LimitingInputStream4SkipEi(ptr noundef nonnull align 8 dereferenceable(32) %0, i32 noundef %1) unnamed_addr #4 align 2 {
  %3 = alloca i1, align 1
  %4 = alloca ptr, align 8
  %5 = alloca i32, align 4
  store ptr %0, ptr %4, align 8, !tbaa !95
  store i32 %1, ptr %5, align 4, !tbaa !9
  %6 = load ptr, ptr %4, align 8
  %7 = load i32, ptr %5, align 4, !tbaa !9
  %8 = sext i32 %7 to i64
  %9 = getelementptr inbounds nuw %"class.google::protobuf::io::LimitingInputStream", ptr %6, i32 0, i32 2
  %10 = load i64, ptr %9, align 8, !tbaa !99
  %11 = icmp sgt i64 %8, %10
  br i1 %11, label %12, label %28

12:                                               ; preds = %2
  %13 = getelementptr inbounds nuw %"class.google::protobuf::io::LimitingInputStream", ptr %6, i32 0, i32 2
  %14 = load i64, ptr %13, align 8, !tbaa !99
  %15 = icmp slt i64 %14, 0
  br i1 %15, label %16, label %17

16:                                               ; preds = %12
  store i1 false, ptr %3, align 1
  br label %43

17:                                               ; preds = %12
  %18 = getelementptr inbounds nuw %"class.google::protobuf::io::LimitingInputStream", ptr %6, i32 0, i32 1
  %19 = load ptr, ptr %18, align 8, !tbaa !97
  %20 = getelementptr inbounds nuw %"class.google::protobuf::io::LimitingInputStream", ptr %6, i32 0, i32 2
  %21 = load i64, ptr %20, align 8, !tbaa !99
  %22 = trunc i64 %21 to i32
  %23 = load ptr, ptr %19, align 8, !tbaa !11
  %24 = getelementptr inbounds ptr, ptr %23, i64 4
  %25 = load ptr, ptr %24, align 8
  %26 = call noundef zeroext i1 %25(ptr noundef nonnull align 8 dereferenceable(8) %19, i32 noundef %22)
  %27 = getelementptr inbounds nuw %"class.google::protobuf::io::LimitingInputStream", ptr %6, i32 0, i32 2
  store i64 0, ptr %27, align 8, !tbaa !99
  store i1 false, ptr %3, align 1
  br label %43

28:                                               ; preds = %2
  %29 = getelementptr inbounds nuw %"class.google::protobuf::io::LimitingInputStream", ptr %6, i32 0, i32 1
  %30 = load ptr, ptr %29, align 8, !tbaa !97
  %31 = load i32, ptr %5, align 4, !tbaa !9
  %32 = load ptr, ptr %30, align 8, !tbaa !11
  %33 = getelementptr inbounds ptr, ptr %32, i64 4
  %34 = load ptr, ptr %33, align 8
  %35 = call noundef zeroext i1 %34(ptr noundef nonnull align 8 dereferenceable(8) %30, i32 noundef %31)
  br i1 %35, label %37, label %36

36:                                               ; preds = %28
  store i1 false, ptr %3, align 1
  br label %43

37:                                               ; preds = %28
  %38 = load i32, ptr %5, align 4, !tbaa !9
  %39 = sext i32 %38 to i64
  %40 = getelementptr inbounds nuw %"class.google::protobuf::io::LimitingInputStream", ptr %6, i32 0, i32 2
  %41 = load i64, ptr %40, align 8, !tbaa !99
  %42 = sub nsw i64 %41, %39
  store i64 %42, ptr %40, align 8, !tbaa !99
  store i1 true, ptr %3, align 1
  br label %43

43:                                               ; preds = %37, %36, %17, %16
  %44 = load i1, ptr %3, align 1
  ret i1 %44
}