; Function Attrs: mustprogress uwtable
define hidden noundef zeroext i1 @_ZN6google8protobuf2io19LimitingInputStream4SkipEi(ptr noundef nonnull align 8 captures(none) dereferenceable(32) %0, i32 noundef %1) unnamed_addr #6 align 2 {
  %3 = sext i32 %1 to i64
  %4 = getelementptr inbounds nuw i8, ptr %0, i64 16
  %5 = load i64, ptr %4, align 8, !tbaa !67
  %6 = icmp sge i64 %5, %3
  br i1 %6, label %17, label %7

7:                                                ; preds = %2
  %8 = icmp slt i64 %5, 0
  br i1 %8, label %27, label %9

9:                                                ; preds = %7
  %10 = getelementptr inbounds nuw i8, ptr %0, i64 8
  %11 = load ptr, ptr %10, align 8, !tbaa !64
  %12 = trunc nuw nsw i64 %5 to i32
  %13 = load ptr, ptr %11, align 8, !tbaa !3
  %14 = getelementptr inbounds nuw i8, ptr %13, i64 32
  %15 = load ptr, ptr %14, align 8
  %16 = tail call noundef zeroext i1 %15(ptr noundef nonnull align 8 dereferenceable(8) %11, i32 noundef %12)
  br label %.sink.split

17:                                               ; preds = %2
  %18 = getelementptr inbounds nuw i8, ptr %0, i64 8
  %19 = load ptr, ptr %18, align 8, !tbaa !64
  %20 = load ptr, ptr %19, align 8, !tbaa !3
  %21 = getelementptr inbounds nuw i8, ptr %20, i64 32
  %22 = load ptr, ptr %21, align 8
  %23 = tail call noundef zeroext i1 %22(ptr noundef nonnull align 8 dereferenceable(8) %19, i32 noundef %1)
  br i1 %23, label %24, label %27

24:                                               ; preds = %17
  %25 = load i64, ptr %4, align 8, !tbaa !67
  %26 = sub nsw i64 %25, %3
  br label %.sink.split

.sink.split:                                      ; preds = %9, %24
  %.sink = phi i64 [ %26, %24 ], [ 0, %9 ]
  store i64 %.sink, ptr %4, align 8, !tbaa !67
  br label %27

27:                                               ; preds = %.sink.split, %17, %7
  %.0 = phi i1 [ false, %7 ], [ false, %17 ], [ %6, %.sink.split ]
  ret i1 %.0
}